; Function Attrs: null_pointer_is_valid sspstrong uwtable
define internal i32 @dissect_p1_CategoryValue(i1 zeroext %0, ptr noundef %1, i32 noundef %2, ptr noundef readonly captures(none) %3, ptr noundef %4, i32 %5) #0 {
  %7 = getelementptr inbounds nuw i8, ptr %3, i64 72
  %8 = load ptr, ptr %7, align 8
  %.not.i = icmp eq ptr %8, null
  %9 = getelementptr inbounds nuw i8, ptr %3, i64 16
  %10 = load ptr, ptr %9, align 8
  br i1 %.not.i, label %24, label %11

11:                                               ; preds = %6
  %12 = getelementptr inbounds nuw i8, ptr %3, i64 48
  %13 = load ptr, ptr %12, align 8
  %14 = tail call i32 @call_ber_oid_callback(ptr noundef nonnull %8, ptr noundef %1, i32 noundef %2, ptr noundef %10, ptr noundef %4, ptr noundef %13)
  %15 = load ptr, ptr %9, align 8
  %16 = getelementptr inbounds nuw i8, ptr %15, i64 408
  %17 = load ptr, ptr %16, align 8
  %18 = load ptr, ptr %7, align 8
  %19 = tail call ptr @oid_resolved_from_string(ptr noundef %17, ptr noundef %18)
  %.not19.i = icmp eq ptr %19, null
  br i1 %.not19.i, label %20, label %22

20:                                               ; preds = %11
  %21 = load ptr, ptr %7, align 8
  br label %22

22:                                               ; preds = %20, %11
  %23 = phi ptr [ %21, %20 ], [ %19, %11 ]
  tail call void (ptr, ptr, ...) @proto_item_append_text(ptr noundef %4, ptr noundef nonnull @.str.6, ptr noundef %23)
  br label %dissect_p1_SecurityCategoryValue.exit

24:                                               ; preds = %6
  %25 = tail call i32 @dissect_unknown_ber(ptr noundef %10, ptr noundef %1, i32 noundef %2, ptr noundef %4)
  br label %dissect_p1_SecurityCategoryValue.exit

dissect_p1_SecurityCategoryValue.exit:            ; preds = %22, %24
  %.0.i = phi i32 [ %14, %22 ], [ %25, %24 ]
  ret i32 %.0.i
}